target datalayout = "e-m:e-p270:32:32-p271:32:32-p272:64:64-i64:64-i128:128-f80:128-n8:16:32:64-S128"
target triple = "x86_64-pc-linux-gnu"

%struct.prov_gcm_ctx_st = type { i32, i64, i64, i64, i64, i64, i64, i64, i64, i64, i32, i8, [128 x i8], [16 x i8], ptr, ptr, %struct.gcm128_context, ptr }
%struct.gcm128_context = type { %union.anon, %union.anon, %union.anon, %union.anon, %union.anon, %union.anon, [16 x %struct.u128], %struct.gcm_funcs_st, i32, i32, ptr, ptr, [48 x i8] }
%union.anon = type { [2 x i64] }
%struct.u128 = type { i64, i64 }
%struct.gcm_funcs_st = type { ptr, ptr, ptr }

; Function Attrs: nounwind uwtable
define internal i32 @vaes_gcm_setiv(ptr noundef %0, ptr noundef %1, i64 noundef %2) #0 {
  %4 = alloca i32, align 4
  %5 = alloca ptr, align 8
  %6 = alloca ptr, align 8
  %7 = alloca i64, align 8
  %8 = alloca ptr, align 8
  %9 = alloca i32, align 4
  store ptr %0, ptr %5, align 8, !tbaa !9
  store ptr %1, ptr %6, align 8, !tbaa !12
  store i64 %2, ptr %7, align 8, !tbaa !3
  call void @llvm.lifetime.start.p0(i64 8, ptr %8) #5
  %10 = load ptr, ptr %5, align 8, !tbaa !9
  %11 = getelementptr inbounds nuw %struct.prov_gcm_ctx_st, ptr %10, i32 0, i32 16
  store ptr %11, ptr %8, align 8, !tbaa !14
  %12 = load ptr, ptr %8, align 8, !tbaa !14
  %13 = getelementptr inbounds nuw %struct.gcm128_context, ptr %12, i32 0, i32 0
  %14 = getelementptr inbounds [2 x i64], ptr %13, i64 0, i64 0
  store i64 0, ptr %14, align 8, !tbaa !23
  %15 = load ptr, ptr %8, align 8, !tbaa !14
  %16 = getelementptr inbounds nuw %struct.gcm128_context, ptr %15, i32 0, i32 0
  %17 = getelementptr inbounds [2 x i64], ptr %16, i64 0, i64 1
  store i64 0, ptr %17, align 8, !tbaa !23
  %18 = load ptr, ptr %8, align 8, !tbaa !14
  %19 = getelementptr inbounds nuw %struct.gcm128_context, ptr %18, i32 0, i32 4
  %20 = getelementptr inbounds [2 x i64], ptr %19, i64 0, i64 0
  store i64 0, ptr %20, align 8, !tbaa !23
  %21 = load ptr, ptr %8, align 8, !tbaa !14
  %22 = getelementptr inbounds nuw %struct.gcm128_context, ptr %21, i32 0, i32 4
  %23 = getelementptr inbounds [2 x i64], ptr %22, i64 0, i64 1
  store i64 0, ptr %23, align 8, !tbaa !23
  %24 = load ptr, ptr %8, align 8, !tbaa !14
  %25 = getelementptr inbounds nuw %struct.gcm128_context, ptr %24, i32 0, i32 3
  %26 = getelementptr inbounds [2 x i64], ptr %25, i64 0, i64 0
  store i64 0, ptr %26, align 8, !tbaa !23
  %27 = load ptr, ptr %8, align 8, !tbaa !14
  %28 = getelementptr inbounds nuw %struct.gcm128_context, ptr %27, i32 0, i32 3
  %29 = getelementptr inbounds [2 x i64], ptr %28, i64 0, i64 1
  store i64 0, ptr %29, align 8, !tbaa !23
  %30 = load ptr, ptr %8, align 8, !tbaa !14
  %31 = getelementptr inbounds nuw %struct.gcm128_context, ptr %30, i32 0, i32 9
  store i32 0, ptr %31, align 4, !tbaa !24
  %32 = load ptr, ptr %8, align 8, !tbaa !14
  %33 = getelementptr inbounds nuw %struct.gcm128_context, ptr %32, i32 0, i32 8
  store i32 0, ptr %33, align 8, !tbaa !25
  %34 = load i64, ptr %7, align 8, !tbaa !3
  %35 = icmp ugt i64 %34, 2305843009213693952
  br i1 %35, label %36, label %37

36:                                               ; preds = %3
  store i32 0, ptr %4, align 4
  store i32 1, ptr %9, align 4
  br label %44

37:                                               ; preds = %3
  %38 = load ptr, ptr %8, align 8, !tbaa !14
  %39 = getelementptr inbounds nuw %struct.gcm128_context, ptr %38, i32 0, i32 11
  %40 = load ptr, ptr %39, align 8, !tbaa !20
  %41 = load ptr, ptr %8, align 8, !tbaa !14
  %42 = load ptr, ptr %6, align 8, !tbaa !12
  %43 = load i64, ptr %7, align 8, !tbaa !3
  call void @ossl_aes_gcm_setiv_avx512(ptr noundef %40, ptr noundef %41, ptr noundef %42, i64 noundef %43)
  store i32 1, ptr %4, align 4
  store i32 1, ptr %9, align 4
  br label %44

44:                                               ; preds = %37, %36
  call void @llvm.lifetime.end.p0(i64 8, ptr %8) #5
  %45 = load i32, ptr %4, align 4
  ret i32 %45
}