; Function Attrs: nounwind uwtable
define internal range(i32 0, 2) i32 @vaes_gcm_setiv(ptr noundef initializes((248, 264), (296, 328), (624, 632)) %0, ptr noundef %1, i64 noundef %2) #0 {
  %4 = getelementptr inbounds nuw i8, ptr %0, i64 248
  %5 = getelementptr inbounds nuw i8, ptr %0, i64 296
  %6 = getelementptr inbounds nuw i8, ptr %0, i64 628
  store i32 0, ptr %6, align 4, !tbaa !11
  %7 = getelementptr inbounds nuw i8, ptr %0, i64 624
  store i32 0, ptr %7, align 8, !tbaa !12
  %8 = icmp ugt i64 %2, 2305843009213693952
  tail call void @llvm.memset.p0.i64(ptr noundef nonnull align 8 dereferenceable(16) %4, i8 0, i64 16, i1 false)
  tail call void @llvm.memset.p0.i64(ptr noundef nonnull align 8 dereferenceable(32) %5, i8 0, i64 32, i1 false)
  br i1 %8, label %12, label %9

9:                                                ; preds = %3
  %10 = getelementptr inbounds nuw i8, ptr %0, i64 640
  %11 = load ptr, ptr %10, align 8, !tbaa !7
  tail call void @ossl_aes_gcm_setiv_avx512(ptr noundef %11, ptr noundef nonnull %4, ptr noundef %1, i64 noundef %2) #4
  br label %12

12:                                               ; preds = %3, %9
  %.0 = phi i32 [ 1, %9 ], [ 0, %3 ]
  ret i32 %.0
}